; Function Attrs: mustprogress uwtable
define noundef i64 @_ZN13duckdb_snappy17CompressFromIOVecEPK5iovecmPNSt7__cxx1112basic_stringIcSt11char_traitsIcESaIcEEENS_18CompressionOptionsE(ptr noundef %0, i64 noundef %1, ptr noundef %2, i32 %3) local_unnamed_addr #3 personality ptr @__gxx_personality_v0 {
  %5 = alloca i64, align 8
  %.not = icmp eq i64 %1, 0
  br i1 %.not, label %._crit_edge, label %.lr.ph

._crit_edge:                                      ; preds = %.lr.ph, %4
  %.0.lcssa = phi i64 [ 0, %4 ], [ %23, %.lr.ph ]
  %6 = add i64 %.0.lcssa, 32
  %7 = udiv i64 %.0.lcssa, 6
  %8 = add i64 %6, %7
  tail call void @_ZNSt7__cxx1112basic_stringIcSt11char_traitsIcESaIcEE6resizeEmc(ptr noundef nonnull align 8 dereferenceable(32) %2, i64 noundef %8, i8 noundef signext 0)
  call void @llvm.lifetime.start.p0(i64 8, ptr nonnull %5) #27
  %9 = getelementptr inbounds nuw i8, ptr %2, i64 8
  %10 = load i64, ptr %9, align 8, !tbaa !77
  %11 = icmp eq i64 %10, 0
  br i1 %11, label %_ZN13duckdb_snappy15string_as_arrayEPNSt7__cxx1112basic_stringIcSt11char_traitsIcESaIcEEE.exit, label %12

12:                                               ; preds = %._crit_edge
  %13 = load ptr, ptr %2, align 8, !tbaa !80
  br label %_ZN13duckdb_snappy15string_as_arrayEPNSt7__cxx1112basic_stringIcSt11char_traitsIcESaIcEEE.exit

_ZN13duckdb_snappy15string_as_arrayEPNSt7__cxx1112basic_stringIcSt11char_traitsIcESaIcEEE.exit: ; preds = %._crit_edge, %12
  %14 = phi ptr [ %13, %12 ], [ null, %._crit_edge ]
  call void @_ZN13duckdb_snappy20RawCompressFromIOVecEPK5iovecmPcPmNS_18CompressionOptionsE(ptr noundef %0, i64 noundef %.0.lcssa, ptr noundef %14, ptr noundef nonnull %5, i32 %3)
  %15 = load i64, ptr %5, align 8, !tbaa !6
  %16 = load i64, ptr %9, align 8, !tbaa !77
  %17 = icmp ugt i64 %15, %16
  br i1 %17, label %18, label %_ZNSt7__cxx1112basic_stringIcSt11char_traitsIcESaIcEE5eraseEmm.exit

18:                                               ; preds = %_ZN13duckdb_snappy15string_as_arrayEPNSt7__cxx1112basic_stringIcSt11char_traitsIcESaIcEEE.exit
  tail call void (ptr, ...) @_ZSt24__throw_out_of_range_fmtPKcz(ptr noundef nonnull @.str.3, ptr noundef nonnull @.str.2, i64 noundef %15, i64 noundef %16) #30
  unreachable

_ZNSt7__cxx1112basic_stringIcSt11char_traitsIcESaIcEE5eraseEmm.exit: ; preds = %_ZN13duckdb_snappy15string_as_arrayEPNSt7__cxx1112basic_stringIcSt11char_traitsIcESaIcEEE.exit
  store i64 %15, ptr %9, align 8, !tbaa !77
  %19 = load ptr, ptr %2, align 8, !tbaa !80
  %20 = getelementptr inbounds nuw i8, ptr %19, i64 %15
  store i8 0, ptr %20, align 1, !tbaa !3
  call void @llvm.lifetime.end.p0(i64 8, ptr nonnull %5) #27
  ret i64 %15

.lr.ph:                                           ; preds = %4, %.lr.ph
  %.014 = phi i64 [ %23, %.lr.ph ], [ 0, %4 ]
  %.01213 = phi i64 [ %24, %.lr.ph ], [ 0, %4 ]
  %21 = getelementptr inbounds nuw %struct.iovec, ptr %0, i64 %.01213, i32 1
  %22 = load i64, ptr %21, align 8, !tbaa !65
  %23 = add i64 %22, %.014
  %24 = add nuw i64 %.01213, 1
  %exitcond.not = icmp eq i64 %24, %1
  br i1 %exitcond.not, label %._crit_edge, label %.lr.ph, !llvm.loop !93
}